; Function Attrs: mustprogress nounwind uwtable
define hidden noundef i32 @_ZN6hermes3hbc23BytecodeModuleGenerator12addScopeDescEPNS_9ScopeDescE(ptr noundef nonnull align 8 dereferenceable(964) %this, ptr noundef %S) local_unnamed_addr #0 align 2 {
entry:
  %S.addr = alloca ptr, align 8
  store ptr %S, ptr %S.addr, align 8
  %tobool.not = icmp eq ptr %S, null
  br i1 %tobool.not, label %if.end, label %land.lhs.true

land.lhs.true:                                    ; preds = %entry
  %function_.i = getelementptr inbounds nuw i8, ptr %S, i64 144
  %0 = load ptr, ptr %function_.i, align 8
  %tobool.i.not = icmp eq ptr %0, null
  br i1 %tobool.i.not, label %if.end, label %land.lhs.true2

land.lhs.true2:                                   ; preds = %land.lhs.true
  %call4 = tail call noundef nonnull align 8 dereferenceable(656) ptr @_ZNK6hermes8Function10getContextEv(ptr noundef nonnull align 8 dereferenceable(304) %0) #20
  %debugInfoSetting_.i = getelementptr inbounds nuw i8, ptr %call4, i64 232
  %1 = load i32, ptr %debugInfoSetting_.i, align 8
  %cmp.not = icmp eq i32 %1, 2
  br i1 %cmp.not, label %if.end, label %if.then

if.then:                                          ; preds = %land.lhs.true2
  store ptr null, ptr %S.addr, align 8
  br label %if.end

if.end:                                           ; preds = %if.then, %land.lhs.true2, %land.lhs.true, %entry
  %newScopeDescs_ = getelementptr inbounds nuw i8, ptr %this, i64 208
  %call6 = call noundef zeroext i1 @_ZN4llvh9SetVectorIPN6hermes9ScopeDescESt6vectorIS3_SaIS3_EENS_8DenseSetIS3_NS_12DenseMapInfoIS3_EEEEE6insertERKS3_(ptr noundef nonnull align 8 dereferenceable(48) %newScopeDescs_, ptr noundef nonnull align 8 dereferenceable(8) %S.addr)
  %scopeDescIDMap_ = getelementptr inbounds nuw i8, ptr %this, i64 104
  %2 = load ptr, ptr %S.addr, align 8
  %call7 = call noundef i32 @_ZN6hermes3hbc15AllocationTableIPNS_9ScopeDescEE8allocateES3_(ptr noundef nonnull align 8 dereferenceable(104) %scopeDescIDMap_, ptr noundef %2)
  ret i32 %call7
}